target datalayout = "e-m:e-p270:32:32-p271:32:32-p272:64:64-i64:64-i128:128-f80:128-n8:16:32:64-S128"
target triple = "x86_64-pc-linux-gnu"

%struct.child_handler_disabler_state = type { %struct.__sigset_t }
%struct.__sigset_t = type { [16 x i64] }

@.str.206 = private unnamed_addr constant [28 x i8] c"signal to obtain old action\00", align 1
@.str.207 = private unnamed_addr constant [12 x i8] c"sigprocmask\00", align 1

; Function Attrs: nounwind sspstrong uwtable
define internal i32 @disable_child_handler_fork_child(ptr noundef %0, ptr noundef %1, i64 noundef %2) #0 {
  %4 = alloca i32, align 4
  %5 = alloca ptr, align 8
  %6 = alloca ptr, align 8
  %7 = alloca i64, align 8
  %8 = alloca i32, align 4
  %9 = alloca i32, align 4
  %10 = alloca ptr, align 8
  %11 = alloca i32, align 4
  store ptr %0, ptr %5, align 8, !tbaa !148
  store ptr %1, ptr %6, align 8, !tbaa !64
  store i64 %2, ptr %7, align 8, !tbaa !35
  call void @llvm.lifetime.start.p0(i64 4, ptr %8) #27
  call void @llvm.lifetime.start.p0(i64 4, ptr %9) #27
  store i32 1, ptr %8, align 4, !tbaa !34
  br label %12

12:                                               ; preds = %54, %3
  %13 = load i32, ptr %8, align 4, !tbaa !34
  %14 = icmp slt i32 %13, 65
  br i1 %14, label %15, label %57

15:                                               ; preds = %12
  call void @llvm.lifetime.start.p0(i64 8, ptr %10) #27
  %16 = load i32, ptr %8, align 4, !tbaa !34
  %17 = call ptr @signal(i32 noundef %16, ptr noundef null) #27
  store ptr %17, ptr %10, align 8, !tbaa !62
  %18 = load ptr, ptr %10, align 8, !tbaa !62
  %19 = icmp eq ptr %18, inttoptr (i64 -1 to ptr)
  br i1 %19, label %20, label %25

20:                                               ; preds = %15
  %21 = call ptr @rb_errno_ptr()
  %22 = load i32, ptr %21, align 4, !tbaa !34
  %23 = icmp eq i32 %22, 22
  br i1 %23, label %24, label %25

24:                                               ; preds = %20
  store i32 4, ptr %11, align 4
  br label %51

25:                                               ; preds = %20, %15
  %26 = load ptr, ptr %10, align 8, !tbaa !62
  %27 = icmp eq ptr %26, inttoptr (i64 -1 to ptr)
  br i1 %27, label %28, label %40

28:                                               ; preds = %25
  %29 = load ptr, ptr %6, align 8, !tbaa !64
  %30 = icmp ne ptr %29, null
  br i1 %30, label %31, label %38

31:                                               ; preds = %28
  %32 = load i64, ptr %7, align 8, !tbaa !35
  %33 = icmp ult i64 0, %32
  br i1 %33, label %34, label %38

34:                                               ; preds = %31
  %35 = load ptr, ptr %6, align 8, !tbaa !64
  %36 = load i64, ptr %7, align 8, !tbaa !35
  %37 = call i64 @strlcpy(ptr noundef %35, ptr noundef @.str.206, i64 noundef %36)
  br label %39

38:                                               ; preds = %31, %28
  br label %39

39:                                               ; preds = %38, %34
  store i32 -1, ptr %4, align 4
  store i32 1, ptr %11, align 4
  br label %51

40:                                               ; preds = %25
  %41 = load i32, ptr %8, align 4, !tbaa !34
  %42 = icmp eq i32 %41, 13
  br i1 %42, label %43, label %44

43:                                               ; preds = %40
  store i32 4, ptr %11, align 4
  br label %51

44:                                               ; preds = %40
  %45 = load ptr, ptr %10, align 8, !tbaa !62
  %46 = icmp eq ptr %45, inttoptr (i64 1 to ptr)
  br i1 %46, label %47, label %50

47:                                               ; preds = %44
  %48 = load i32, ptr %8, align 4, !tbaa !34
  %49 = call ptr @signal(i32 noundef %48, ptr noundef inttoptr (i64 1 to ptr)) #27
  br label %50

50:                                               ; preds = %47, %44
  store i32 0, ptr %11, align 4
  br label %51

51:                                               ; preds = %50, %43, %39, %24
  call void @llvm.lifetime.end.p0(i64 8, ptr %10) #27
  %52 = load i32, ptr %11, align 4
  switch i32 %52, label %79 [
    i32 0, label %53
    i32 4, label %54
  ]

53:                                               ; preds = %51
  br label %54

54:                                               ; preds = %53, %51
  %55 = load i32, ptr %8, align 4, !tbaa !34
  %56 = add i32 %55, 1
  store i32 %56, ptr %8, align 4, !tbaa !34
  br label %12, !llvm.loop !279

57:                                               ; preds = %12
  %58 = load ptr, ptr %5, align 8, !tbaa !148
  %59 = getelementptr inbounds nuw %struct.child_handler_disabler_state, ptr %58, i32 0, i32 0
  %60 = call i32 @sigemptyset(ptr noundef %59) #27
  %61 = load ptr, ptr %5, align 8, !tbaa !148
  %62 = getelementptr inbounds nuw %struct.child_handler_disabler_state, ptr %61, i32 0, i32 0
  %63 = call i32 @sigprocmask(i32 noundef 2, ptr noundef %62, ptr noundef null) #27
  store i32 %63, ptr %9, align 4, !tbaa !34
  %64 = load i32, ptr %9, align 4, !tbaa !34
  %65 = icmp ne i32 %64, 0
  br i1 %65, label %66, label %78

66:                                               ; preds = %57
  %67 = load ptr, ptr %6, align 8, !tbaa !64
  %68 = icmp ne ptr %67, null
  br i1 %68, label %69, label %76

69:                                               ; preds = %66
  %70 = load i64, ptr %7, align 8, !tbaa !35
  %71 = icmp ult i64 0, %70
  br i1 %71, label %72, label %76

72:                                               ; preds = %69
  %73 = load ptr, ptr %6, align 8, !tbaa !64
  %74 = load i64, ptr %7, align 8, !tbaa !35
  %75 = call i64 @strlcpy(ptr noundef %73, ptr noundef @.str.207, i64 noundef %74)
  br label %77

76:                                               ; preds = %69, %66
  br label %77

77:                                               ; preds = %76, %72
  store i32 -1, ptr %4, align 4
  store i32 1, ptr %11, align 4
  br label %79

78:                                               ; preds = %57
  store i32 0, ptr %4, align 4
  store i32 1, ptr %11, align 4
  br label %79

79:                                               ; preds = %78, %77, %51
  call void @llvm.lifetime.end.p0(i64 4, ptr %9) #27
  call void @llvm.lifetime.end.p0(i64 4, ptr %8) #27
  %80 = load i32, ptr %4, align 4
  ret i32 %80
}