; Function Attrs: nounwind sspstrong uwtable
define internal fastcc range(i32 -1, 1) i32 @disable_child_handler_fork_child(ptr noundef nonnull %0, ptr noundef %1, i64 noundef %2) unnamed_addr #1 {
  br label %4

4:                                                ; preds = %3, %18
  %.02432 = phi i32 [ 1, %3 ], [ %19, %18 ]
  %5 = tail call ptr @signal(i32 noundef %.02432, ptr noundef null) #27
  %6 = icmp eq ptr %5, inttoptr (i64 -1 to ptr)
  br i1 %6, label %7, label %.critedge

7:                                                ; preds = %4
  %8 = tail call ptr @rb_errno_ptr() #27
  %9 = load i32, ptr %8, align 4, !tbaa !60
  %10 = icmp eq i32 %9, 22
  br i1 %10, label %18, label %11

11:                                               ; preds = %7
  %12 = icmp ne ptr %1, null
  %13 = icmp ne i64 %2, 0
  %or.cond = and i1 %12, %13
  br i1 %or.cond, label %.sink.split, label %27

.critedge:                                        ; preds = %4
  %14 = icmp ne i32 %.02432, 13
  %15 = icmp eq ptr %5, inttoptr (i64 1 to ptr)
  %or.cond31 = and i1 %14, %15
  br i1 %or.cond31, label %16, label %18

16:                                               ; preds = %.critedge
  %17 = tail call ptr @signal(i32 noundef %.02432, ptr noundef nonnull inttoptr (i64 1 to ptr)) #27
  br label %18

18:                                               ; preds = %7, %.critedge, %16
  %19 = add nuw nsw i32 %.02432, 1
  %exitcond.not = icmp eq i32 %19, 65
  br i1 %exitcond.not, label %20, label %4, !llvm.loop !313

20:                                               ; preds = %18
  %21 = tail call i32 @sigemptyset(ptr noundef nonnull %0) #27
  %22 = tail call i32 @sigprocmask(i32 noundef 2, ptr noundef nonnull %0, ptr noundef null) #27
  %.not = icmp eq i32 %22, 0
  br i1 %.not, label %27, label %23

23:                                               ; preds = %20
  %24 = icmp ne ptr %1, null
  %25 = icmp ne i64 %2, 0
  %or.cond3 = and i1 %24, %25
  br i1 %or.cond3, label %.sink.split, label %27

.sink.split:                                      ; preds = %23, %11
  %.str.206.sink = phi ptr [ @.str.206, %11 ], [ @.str.207, %23 ]
  %26 = tail call i64 @strlcpy(ptr noundef nonnull %1, ptr noundef nonnull dereferenceable(1) %.str.206.sink, i64 noundef %2) #27
  br label %27

27:                                               ; preds = %.sink.split, %11, %20, %23
  %.2 = phi i32 [ -1, %23 ], [ 0, %20 ], [ -1, %11 ], [ -1, %.sink.split ]
  ret i32 %.2
}